; Function Attrs: nounwind uwtable
define dso_local zeroext i1 @type_is_range(i32 noundef %0) local_unnamed_addr #0 {
  %2 = zext i32 %0 to i64
  %3 = tail call ptr @SearchSysCache1(i32 noundef 82, i64 noundef %2) #8
  %.not.i = icmp eq ptr %3, null
  br i1 %.not.i, label %get_typtype.exit, label %4

4:                                                ; preds = %1
  %5 = getelementptr i8, ptr %3, i64 16
  %.val.i = load ptr, ptr %5, align 8
  %6 = getelementptr inbounds nuw i8, ptr %.val.i, i64 22
  %7 = load i8, ptr %6, align 2
  %8 = zext i8 %7 to i64
  %9 = getelementptr inbounds nuw i8, ptr %.val.i, i64 %8
  %10 = getelementptr inbounds nuw i8, ptr %9, i64 79
  %11 = load i8, ptr %10, align 1
  tail call void @ReleaseSysCache(ptr noundef nonnull %3) #8
  %12 = icmp eq i8 %11, 114
  br label %get_typtype.exit

get_typtype.exit:                                 ; preds = %1, %4
  %.0.i = phi i1 [ %12, %4 ], [ false, %1 ]
  ret i1 %.0.i
}